	.file	"RandomString.c"
	.text
	.section	.rodata
.LC0:
	.string	"String A"
.LC1:
	.string	"String B"
.LC2:
	.string	"String D"
.LC3:
	.string	"String E"
.LC4:
	.string	"String F"
.LC5:
	.string	"String G"
.LC6:
	.string	"String H"
.LC7:
	.string	"String I"
.LC8:
	.string	"String J"
.LC9:
	.string	"String K"
.LC10:
	.string	"rc_prod -> %d rc_cons -> %d\n"
	.text
	.globl	main
	.type	main, @function
main:
.LFB6:
	.cfi_startproc
	endbr64
	pushq	%rbp
	.cfi_def_cfa_offset 16
	.cfi_offset 6, -16
	movq	%rsp, %rbp
	.cfi_def_cfa_register 6
	subq	$144, %rsp
	movq	%fs:40, %rax
	movq	%rax, -8(%rbp)
	xorl	%eax, %eax
	movl	$0, -140(%rbp)
	leaq	.LC0(%rip), %rax
	movq	%rax, -96(%rbp)
	leaq	.LC1(%rip), %rax
	movq	%rax, -88(%rbp)
	leaq	.LC2(%rip), %rax
	movq	%rax, -80(%rbp)
	leaq	.LC3(%rip), %rax
	movq	%rax, -72(%rbp)
	leaq	.LC4(%rip), %rax
	movq	%rax, -64(%rbp)
	leaq	.LC5(%rip), %rax
	movq	%rax, -56(%rbp)
	leaq	.LC6(%rip), %rax
	movq	%rax, -48(%rbp)
	leaq	.LC7(%rip), %rax
	movq	%rax, -40(%rbp)
	leaq	.LC8(%rip), %rax
	movq	%rax, -32(%rbp)
	leaq	.LC9(%rip), %rax
	movq	%rax, -24(%rbp)
	leaq	-96(%rbp), %rax
	movq	%rax, -112(%rbp)
	leaq	-140(%rbp), %rax
	movq	%rax, -104(%rbp)
	leaq	-112(%rbp), %rdx
	leaq	-128(%rbp), %rax
	movq	%rdx, %rcx
	leaq	producer(%rip), %rdx
	movl	$0, %esi
	movq	%rax, %rdi
	call	pthread_create@PLT
	movl	%eax, -136(%rbp)
	leaq	-112(%rbp), %rdx
	leaq	-120(%rbp), %rax
	movq	%rdx, %rcx
	leaq	consumer(%rip), %rdx
	movl	$0, %esi
	movq	%rax, %rdi
	call	pthread_create@PLT
	movl	%eax, -132(%rbp)
	movl	-132(%rbp), %edx
	movl	-136(%rbp), %eax
	movl	%eax, %esi
	leaq	.LC10(%rip), %rax
	movq	%rax, %rdi
	movl	$0, %eax
	call	printf@PLT
	call	pause@PLT
	movl	$0, %eax
	movq	-8(%rbp), %rdx
	subq	%fs:40, %rdx
	je	.L3
	call	__stack_chk_fail@PLT
.L3:
	leave
	.cfi_def_cfa 7, 8
	ret
	.cfi_endproc
.LFE6:
	.size	main, .-main
	.globl	someNonStaticFunction
	.type	someNonStaticFunction, @function
someNonStaticFunction:
.LFB7:
	.cfi_startproc
	endbr64
	pushq	%rbp
	.cfi_def_cfa_offset 16
	.cfi_offset 6, -16
	movq	%rsp, %rbp
	.cfi_def_cfa_register 6
	movl	$0, %eax
	popq	%rbp
	.cfi_def_cfa 7, 8
	ret
	.cfi_endproc
.LFE7:
	.size	someNonStaticFunction, .-someNonStaticFunction
	.section	.rodata
.LC11:
	.string	"New index %d\n"
	.text
	.type	producer, @function
producer:
.LFB8:
	.cfi_startproc
	endbr64
	pushq	%rbp
	.cfi_def_cfa_offset 16
	.cfi_offset 6, -16
	movq	%rsp, %rbp
	.cfi_def_cfa_register 6
	subq	$48, %rsp
	movq	%rdi, -40(%rbp)
	movq	-40(%rbp), %rax
	movq	8(%rax), %rdx
	movq	(%rax), %rax
	movq	%rax, -16(%rbp)
	movq	%rdx, -8(%rbp)
.L7:
	call	rand@PLT
	movl	%eax, %edx
	movslq	%edx, %rax
	imulq	$1717986919, %rax, %rax
	shrq	$32, %rax
	sarl	$2, %eax
	movl	%edx, %ecx
	sarl	$31, %ecx
	subl	%ecx, %eax
	movl	%eax, -20(%rbp)
	movl	-20(%rbp), %ecx
	movl	%ecx, %eax
	sall	$2, %eax
	addl	%ecx, %eax
	addl	%eax, %eax
	subl	%eax, %edx
	movl	%edx, -20(%rbp)
	movl	-20(%rbp), %eax
	movl	%eax, %esi
	leaq	.LC11(%rip), %rax
	movq	%rax, %rdi
	movl	$0, %eax
	call	printf@PLT
	movq	-8(%rbp), %rax
	movl	-20(%rbp), %edx
	movl	%edx, (%rax)
	movl	$2, %edi
	call	sleep@PLT
	nop
	jmp	.L7
	.cfi_endproc
.LFE8:
	.size	producer, .-producer
	.section	.rodata
.LC12:
	.string	"%s (%d)\n"
	.text
	.type	consumer, @function
consumer:
.LFB9:
	.cfi_startproc
	endbr64
	pushq	%rbp
	.cfi_def_cfa_offset 16
	.cfi_offset 6, -16
	movq	%rsp, %rbp
	.cfi_def_cfa_register 6
	subq	$48, %rsp
	movq	%rdi, -40(%rbp)
	movq	-40(%rbp), %rax
	movq	8(%rax), %rdx
	movq	(%rax), %rax
	movq	%rax, -16(%rbp)
	movq	%rdx, -8(%rbp)
.L9:
	movq	-8(%rbp), %rax
	movl	(%rax), %eax
	movl	%eax, -20(%rbp)
	movq	-16(%rbp), %rax
	movl	-20(%rbp), %edx
	movslq	%edx, %rdx
	salq	$3, %rdx
	addq	%rdx, %rax
	movq	(%rax), %rax
	movl	-20(%rbp), %edx
	movq	%rax, %rsi
	leaq	.LC12(%rip), %rax
	movq	%rax, %rdi
	movl	$0, %eax
	call	printf@PLT
	movl	$2, %edi
	call	sleep@PLT
	nop
	jmp	.L9
	.cfi_endproc
.LFE9:
	.size	consumer, .-consumer
	.ident	"GCC: (Ubuntu 13.2.0-23ubuntu4) 13.2.0"
	.section	.note.GNU-stack,"",@progbits
	.section	.note.gnu.property,"a"
	.align 8
	.long	1f - 0f
	.long	4f - 1f
	.long	5
0:
	.string	"GNU"
1:
	.align 8
	.long	0xc0000002
	.long	3f - 2f
2:
	.long	0x3
3:
	.align 8
4:
